target datalayout = "e-m:e-p270:32:32-p271:32:32-p272:64:64-i64:64-i128:128-f80:128-n8:16:32:64-S128"
target triple = "x86_64-pc-linux-gnu"

%union.pthread_mutex_t = type { %struct.__pthread_mutex_s }
%struct.__pthread_mutex_s = type { i32, i32, i32, i32, i32, i16, i16, %struct.__pthread_internal_list }
%struct.__pthread_internal_list = type { ptr, ptr }
%struct.settings = type { i64, i32, i32, i32, ptr, i32, i32, i32, ptr, ptr, i32, double, i32, i32, i32, i8, i32, i32, i8, i32, i32, i32, i32, i32, i32, i8, i8, i8, i8, i8, i8, i8, i32, i32, double, double, i32, i32, i8, i32, i8, i8, ptr, i32, i32, i32, i32, double, double, i32, i8, i32, i32, i32, i32, i32, i8, i8, i8, ptr, i32, i32, i32, i32, i32, i32, i32, i32, i32, i32, double, i8, i32, i32, ptr, i32 }
%union.pthread_cond_t = type { %struct.__pthread_cond_s }
%struct.__pthread_cond_s = type { %union.__atomic_wide_counter, %union.__atomic_wide_counter, [2 x i32], [2 x i32], i32, i32, [2 x i32] }
%union.__atomic_wide_counter = type { i64 }
%struct.timeval = type { i64, i64 }
%struct.LIBEVENT_THREAD = type { i64, ptr, %struct.thread_notify, %struct.thread_notify, %union.pthread_mutex_t, %struct.iop_head_s, i32, i32, i32, %struct.thread_stats, [3 x %struct.io_queue_s], ptr, ptr, ptr, ptr, ptr, ptr, ptr, i32 }
%struct.thread_notify = type { %struct.event, i32 }
%struct.event = type { %struct.event_callback, %union.anon.0, i32, ptr, %union.anon.2, i16, i16, %struct.timeval }
%struct.event_callback = type { %struct.anon, i16, i8, i8, %union.anon, ptr }
%struct.anon = type { ptr, ptr }
%union.anon = type { ptr }
%union.anon.0 = type { %struct.anon.1 }
%struct.anon.1 = type { ptr, ptr }
%union.anon.2 = type { %struct.anon.3 }
%struct.anon.3 = type { %struct.anon.4, %struct.timeval }
%struct.anon.4 = type { ptr, ptr }
%struct.iop_head_s = type { ptr, ptr }
%struct.thread_stats = type { %union.pthread_mutex_t, i64, i64, i64, i64, i64, i64, i64, i64, i64, i64, i64, i64, i64, i64, i64, i64, i64, i64, i64, i64, i64, i64, i64, i64, i64, i64, i64, i64, i64, i64, [64 x %struct.slab_stats], [256 x i64], i64, i64, i64 }
%struct.slab_stats = type { i64, i64, i64, i64, i64, i64, i64, i64 }
%struct.io_queue_s = type { ptr, %struct.iop_head_s, ptr, i32 }
%struct.conn_queue_item = type { i32, i32, i32, i32, i32, i32, ptr, ptr, i64, i32, ptr, %struct.anon.7 }
%struct.anon.7 = type { ptr }
%struct.conn_queue = type { %struct.conn_ev_head, %union.pthread_mutex_t, ptr }
%struct.conn_ev_head = type { ptr, ptr }
%struct.conn = type { ptr, i32, i8, i8, i8, i8, i8, i8, i8, i8, ptr, i32, i32, i32, %struct.event, i16, i16, ptr, ptr, i32, i32, ptr, ptr, ptr, i32, ptr, i32, i32, i32, i32, i32, i32, i32, %struct.sockaddr_in6, i32, i8, %struct.anon.9, %union.protocol_binary_request_header, i64, i64, i16, i32, i32, ptr, ptr, ptr, ptr, ptr, ptr }
%struct.sockaddr_in6 = type { i16, i16, i32, %struct.in6_addr, i32 }
%struct.in6_addr = type { %union.anon.8 }
%union.anon.8 = type { [4 x i32] }
%struct.anon.9 = type { ptr, i64, i64 }
%union.protocol_binary_request_header = type { %struct.anon.10 }
%struct.anon.10 = type { i8, i8, i16, i8, i8, i16, i32, i32, i64 }

@settings = external global %struct.settings, align 8
@worker_hang_lock = internal global %union.pthread_mutex_t zeroinitializer, align 8
@stderr = external global ptr, align 8
@init_lock = internal global %union.pthread_mutex_t zeroinitializer, align 8
@init_count = internal global i32 0, align 4
@init_cond = internal global %union.pthread_cond_t zeroinitializer, align 8
@.str.29 = private unnamed_addr constant [31 x i8] c"Can't read from libevent pipe\0A\00", align 1
@.str.30 = private unnamed_addr constant [39 x i8] c"Can't listen for events on UDP socket\0A\00", align 1
@.str.31 = private unnamed_addr constant [34 x i8] c"Can't listen for events on fd %d\0A\00", align 1
@conns = external global ptr, align 8

; Function Attrs: nounwind uwtable
define internal void @cqi_free(ptr noundef %0, ptr noundef %1) #0 {
  %3 = alloca ptr, align 8
  %4 = alloca ptr, align 8
  store ptr %0, ptr %3, align 8, !tbaa !73
  store ptr %1, ptr %4, align 8, !tbaa !43
  %5 = load ptr, ptr %3, align 8, !tbaa !73
  %6 = getelementptr inbounds nuw %struct.conn_queue, ptr %5, i32 0, i32 2
  %7 = load ptr, ptr %6, align 8, !tbaa !74
  %8 = load ptr, ptr %4, align 8, !tbaa !43
  call void @cache_free(ptr noundef %7, ptr noundef %8)
  ret void
}

; Function Attrs: nounwind uwtable
define internal void @register_thread_initialized() #0 {
  %1 = call i32 @pthread_mutex_lock(ptr noundef @init_lock) #8
  %2 = load i32, ptr @init_count, align 4, !tbaa !4
  %3 = add nsw i32 %2, 1
  store i32 %3, ptr @init_count, align 4, !tbaa !4
  %4 = call i32 @pthread_cond_signal(ptr noundef @init_cond) #8
  %5 = call i32 @pthread_mutex_unlock(ptr noundef @init_lock) #8
  %6 = call i32 @pthread_mutex_lock(ptr noundef @worker_hang_lock) #8
  %7 = call i32 @pthread_mutex_unlock(ptr noundef @worker_hang_lock) #8
  ret void
}

; Function Attrs: nounwind uwtable
define internal ptr @cq_pop(ptr noundef %0) #0 {
  %2 = alloca ptr, align 8
  %3 = alloca ptr, align 8
  store ptr %0, ptr %2, align 8, !tbaa !73
  call void @llvm.lifetime.start.p0(i64 8, ptr %3) #8
  %4 = load ptr, ptr %2, align 8, !tbaa !73
  %5 = getelementptr inbounds nuw %struct.conn_queue, ptr %4, i32 0, i32 1
  %6 = call i32 @pthread_mutex_lock(ptr noundef %5) #8
  %7 = load ptr, ptr %2, align 8, !tbaa !73
  %8 = getelementptr inbounds nuw %struct.conn_queue, ptr %7, i32 0, i32 0
  %9 = getelementptr inbounds nuw %struct.conn_ev_head, ptr %8, i32 0, i32 0
  %10 = load ptr, ptr %9, align 8, !tbaa !223
  store ptr %10, ptr %3, align 8, !tbaa !43
  %11 = load ptr, ptr %3, align 8, !tbaa !43
  %12 = icmp ne ptr %11, null
  br i1 %12, label %13, label %36

13:                                               ; preds = %1
  br label %14

14:                                               ; preds = %13
  %15 = load ptr, ptr %2, align 8, !tbaa !73
  %16 = getelementptr inbounds nuw %struct.conn_queue, ptr %15, i32 0, i32 0
  %17 = getelementptr inbounds nuw %struct.conn_ev_head, ptr %16, i32 0, i32 0
  %18 = load ptr, ptr %17, align 8, !tbaa !223
  %19 = getelementptr inbounds nuw %struct.conn_queue_item, ptr %18, i32 0, i32 11
  %20 = getelementptr inbounds nuw %struct.anon.7, ptr %19, i32 0, i32 0
  %21 = load ptr, ptr %20, align 8, !tbaa !215
  %22 = load ptr, ptr %2, align 8, !tbaa !73
  %23 = getelementptr inbounds nuw %struct.conn_queue, ptr %22, i32 0, i32 0
  %24 = getelementptr inbounds nuw %struct.conn_ev_head, ptr %23, i32 0, i32 0
  store ptr %21, ptr %24, align 8, !tbaa !223
  %25 = icmp eq ptr %21, null
  br i1 %25, label %26, label %33

26:                                               ; preds = %14
  %27 = load ptr, ptr %2, align 8, !tbaa !73
  %28 = getelementptr inbounds nuw %struct.conn_queue, ptr %27, i32 0, i32 0
  %29 = getelementptr inbounds nuw %struct.conn_ev_head, ptr %28, i32 0, i32 0
  %30 = load ptr, ptr %2, align 8, !tbaa !73
  %31 = getelementptr inbounds nuw %struct.conn_queue, ptr %30, i32 0, i32 0
  %32 = getelementptr inbounds nuw %struct.conn_ev_head, ptr %31, i32 0, i32 1
  store ptr %29, ptr %32, align 8, !tbaa !216
  br label %33

33:                                               ; preds = %26, %14
  br label %34

34:                                               ; preds = %33
  br label %35

35:                                               ; preds = %34
  br label %36

36:                                               ; preds = %35, %1
  %37 = load ptr, ptr %2, align 8, !tbaa !73
  %38 = getelementptr inbounds nuw %struct.conn_queue, ptr %37, i32 0, i32 1
  %39 = call i32 @pthread_mutex_unlock(ptr noundef %38) #8
  %40 = load ptr, ptr %3, align 8, !tbaa !43
  call void @llvm.lifetime.end.p0(i64 8, ptr %3) #8
  ret ptr %40
}

; Function Attrs: nounwind uwtable
define internal void @thread_libevent_process(i32 noundef %0, i16 noundef signext %1, ptr noundef %2) #0 {
  %4 = alloca i32, align 4
  %5 = alloca i16, align 2
  %6 = alloca ptr, align 8
  %7 = alloca ptr, align 8
  %8 = alloca ptr, align 8
  %9 = alloca ptr, align 8
  %10 = alloca i64, align 8
  %11 = alloca i32, align 4
  %12 = alloca i32, align 4
  store i32 %0, ptr %4, align 4, !tbaa !4
  store i16 %1, ptr %5, align 2, !tbaa !101
  store ptr %2, ptr %6, align 8, !tbaa !8
  call void @llvm.lifetime.start.p0(i64 8, ptr %7) #8
  %13 = load ptr, ptr %6, align 8, !tbaa !8
  store ptr %13, ptr %7, align 8, !tbaa !8
  call void @llvm.lifetime.start.p0(i64 8, ptr %8) #8
  call void @llvm.lifetime.start.p0(i64 8, ptr %9) #8
  call void @llvm.lifetime.start.p0(i64 8, ptr %10) #8
  store i64 0, ptr %10, align 8, !tbaa !58
  %14 = load i32, ptr %4, align 4, !tbaa !4
  %15 = call i64 @read(i32 noundef %14, ptr noundef %10, i64 noundef 8)
  %16 = icmp ne i64 %15, 8
  br i1 %16, label %17, label %24

17:                                               ; preds = %3
  %18 = load i32, ptr getelementptr inbounds nuw (%struct.settings, ptr @settings, i32 0, i32 5), align 8, !tbaa !52
  %19 = icmp sgt i32 %18, 0
  br i1 %19, label %20, label %23

20:                                               ; preds = %17
  %21 = load ptr, ptr @stderr, align 8, !tbaa !18
  %22 = call i32 (ptr, ptr, ...) @fprintf(ptr noundef %21, ptr noundef @.str.29) #8
  br label %23

23:                                               ; preds = %20, %17
  store i32 1, ptr %11, align 4
  br label %143

24:                                               ; preds = %3
  call void @llvm.lifetime.start.p0(i64 4, ptr %12) #8
  store i32 0, ptr %12, align 4, !tbaa !4
  br label %25

25:                                               ; preds = %137, %24
  %26 = load i32, ptr %12, align 4, !tbaa !4
  %27 = sext i32 %26 to i64
  %28 = load i64, ptr %10, align 8, !tbaa !58
  %29 = icmp ult i64 %27, %28
  br i1 %29, label %31, label %30

30:                                               ; preds = %25
  store i32 2, ptr %11, align 4
  br label %140

31:                                               ; preds = %25
  %32 = load ptr, ptr %7, align 8, !tbaa !8
  %33 = getelementptr inbounds nuw %struct.LIBEVENT_THREAD, ptr %32, i32 0, i32 11
  %34 = load ptr, ptr %33, align 8, !tbaa !25
  %35 = call ptr @cq_pop(ptr noundef %34)
  store ptr %35, ptr %8, align 8, !tbaa !43
  %36 = load ptr, ptr %8, align 8, !tbaa !43
  %37 = icmp eq ptr %36, null
  br i1 %37, label %38, label %39

38:                                               ; preds = %31
  store i32 1, ptr %11, align 4
  br label %140

39:                                               ; preds = %31
  %40 = load ptr, ptr %8, align 8, !tbaa !43
  %41 = getelementptr inbounds nuw %struct.conn_queue_item, ptr %40, i32 0, i32 5
  %42 = load i32, ptr %41, align 4, !tbaa !46
  switch i32 %42, label %132 [
    i32 0, label %43
    i32 1, label %110
    i32 2, label %111
    i32 3, label %119
    i32 4, label %127
  ]

43:                                               ; preds = %39
  %44 = load ptr, ptr %8, align 8, !tbaa !43
  %45 = getelementptr inbounds nuw %struct.conn_queue_item, ptr %44, i32 0, i32 0
  %46 = load i32, ptr %45, align 8, !tbaa !50
  %47 = load ptr, ptr %8, align 8, !tbaa !43
  %48 = getelementptr inbounds nuw %struct.conn_queue_item, ptr %47, i32 0, i32 1
  %49 = load i32, ptr %48, align 4, !tbaa !61
  %50 = load ptr, ptr %8, align 8, !tbaa !43
  %51 = getelementptr inbounds nuw %struct.conn_queue_item, ptr %50, i32 0, i32 2
  %52 = load i32, ptr %51, align 8, !tbaa !62
  %53 = load ptr, ptr %8, align 8, !tbaa !43
  %54 = getelementptr inbounds nuw %struct.conn_queue_item, ptr %53, i32 0, i32 3
  %55 = load i32, ptr %54, align 4, !tbaa !63
  %56 = load ptr, ptr %8, align 8, !tbaa !43
  %57 = getelementptr inbounds nuw %struct.conn_queue_item, ptr %56, i32 0, i32 4
  %58 = load i32, ptr %57, align 8, !tbaa !64
  %59 = load ptr, ptr %7, align 8, !tbaa !8
  %60 = getelementptr inbounds nuw %struct.LIBEVENT_THREAD, ptr %59, i32 0, i32 1
  %61 = load ptr, ptr %60, align 8, !tbaa !207
  %62 = load ptr, ptr %8, align 8, !tbaa !43
  %63 = getelementptr inbounds nuw %struct.conn_queue_item, ptr %62, i32 0, i32 7
  %64 = load ptr, ptr %63, align 8, !tbaa !65
  %65 = load ptr, ptr %8, align 8, !tbaa !43
  %66 = getelementptr inbounds nuw %struct.conn_queue_item, ptr %65, i32 0, i32 8
  %67 = load i64, ptr %66, align 8, !tbaa !66
  %68 = load ptr, ptr %8, align 8, !tbaa !43
  %69 = getelementptr inbounds nuw %struct.conn_queue_item, ptr %68, i32 0, i32 9
  %70 = load i32, ptr %69, align 8, !tbaa !67
  %71 = call ptr @conn_new(i32 noundef %46, i32 noundef %49, i32 noundef %52, i32 noundef %55, i32 noundef %58, ptr noundef %61, ptr noundef %64, i64 noundef %67, i32 noundef %70)
  store ptr %71, ptr %9, align 8, !tbaa !80
  %72 = load ptr, ptr %9, align 8, !tbaa !80
  %73 = icmp eq ptr %72, null
  br i1 %73, label %74, label %105

74:                                               ; preds = %43
  %75 = load ptr, ptr %8, align 8, !tbaa !43
  %76 = getelementptr inbounds nuw %struct.conn_queue_item, ptr %75, i32 0, i32 4
  %77 = load i32, ptr %76, align 8, !tbaa !64
  %78 = icmp eq i32 %77, 2
  br i1 %78, label %79, label %82

79:                                               ; preds = %74
  %80 = load ptr, ptr @stderr, align 8, !tbaa !18
  %81 = call i32 (ptr, ptr, ...) @fprintf(ptr noundef %80, ptr noundef @.str.30) #8
  call void @exit(i32 noundef 1) #9
  unreachable

82:                                               ; preds = %74
  %83 = load i32, ptr getelementptr inbounds nuw (%struct.settings, ptr @settings, i32 0, i32 5), align 8, !tbaa !52
  %84 = icmp sgt i32 %83, 0
  br i1 %84, label %85, label %91

85:                                               ; preds = %82
  %86 = load ptr, ptr @stderr, align 8, !tbaa !18
  %87 = load ptr, ptr %8, align 8, !tbaa !43
  %88 = getelementptr inbounds nuw %struct.conn_queue_item, ptr %87, i32 0, i32 0
  %89 = load i32, ptr %88, align 8, !tbaa !50
  %90 = call i32 (ptr, ptr, ...) @fprintf(ptr noundef %86, ptr noundef @.str.31, i32 noundef %89) #8
  br label %91

91:                                               ; preds = %85, %82
  %92 = load ptr, ptr %8, align 8, !tbaa !43
  %93 = getelementptr inbounds nuw %struct.conn_queue_item, ptr %92, i32 0, i32 7
  %94 = load ptr, ptr %93, align 8, !tbaa !65
  %95 = icmp ne ptr %94, null
  br i1 %95, label %96, label %99

96:                                               ; preds = %91
  %97 = load ptr, ptr %8, align 8, !tbaa !43
  %98 = getelementptr inbounds nuw %struct.conn_queue_item, ptr %97, i32 0, i32 7
  store ptr null, ptr %98, align 8, !tbaa !65
  br label %99

99:                                               ; preds = %96, %91
  %100 = load ptr, ptr %8, align 8, !tbaa !43
  %101 = getelementptr inbounds nuw %struct.conn_queue_item, ptr %100, i32 0, i32 0
  %102 = load i32, ptr %101, align 8, !tbaa !50
  %103 = call i32 @close(i32 noundef %102)
  br label %104

104:                                              ; preds = %99
  br label %109

105:                                              ; preds = %43
  %106 = load ptr, ptr %7, align 8, !tbaa !8
  %107 = load ptr, ptr %9, align 8, !tbaa !80
  %108 = getelementptr inbounds nuw %struct.conn, ptr %107, i32 0, i32 44
  store ptr %106, ptr %108, align 8, !tbaa !81
  br label %109

109:                                              ; preds = %105, %104
  br label %132

110:                                              ; preds = %39
  call void @register_thread_initialized()
  br label %132

111:                                              ; preds = %39
  %112 = load ptr, ptr @conns, align 8, !tbaa !217
  %113 = load ptr, ptr %8, align 8, !tbaa !43
  %114 = getelementptr inbounds nuw %struct.conn_queue_item, ptr %113, i32 0, i32 0
  %115 = load i32, ptr %114, align 8, !tbaa !50
  %116 = sext i32 %115 to i64
  %117 = getelementptr inbounds ptr, ptr %112, i64 %116
  %118 = load ptr, ptr %117, align 8, !tbaa !80
  call void @conn_close_idle(ptr noundef %118)
  br label %132

119:                                              ; preds = %39
  %120 = load ptr, ptr @conns, align 8, !tbaa !217
  %121 = load ptr, ptr %8, align 8, !tbaa !43
  %122 = getelementptr inbounds nuw %struct.conn_queue_item, ptr %121, i32 0, i32 0
  %123 = load i32, ptr %122, align 8, !tbaa !50
  %124 = sext i32 %123 to i64
  %125 = getelementptr inbounds ptr, ptr %120, i64 %124
  %126 = load ptr, ptr %125, align 8, !tbaa !80
  call void @conn_worker_readd(ptr noundef %126)
  br label %132

127:                                              ; preds = %39
  %128 = load ptr, ptr %7, align 8, !tbaa !8
  %129 = getelementptr inbounds nuw %struct.LIBEVENT_THREAD, ptr %128, i32 0, i32 1
  %130 = load ptr, ptr %129, align 8, !tbaa !207
  %131 = call i32 @event_base_loopexit(ptr noundef %130, ptr noundef null)
  br label %132

132:                                              ; preds = %39, %127, %119, %111, %110, %109
  %133 = load ptr, ptr %7, align 8, !tbaa !8
  %134 = getelementptr inbounds nuw %struct.LIBEVENT_THREAD, ptr %133, i32 0, i32 11
  %135 = load ptr, ptr %134, align 8, !tbaa !25
  %136 = load ptr, ptr %8, align 8, !tbaa !43
  call void @cqi_free(ptr noundef %135, ptr noundef %136)
  br label %137

137:                                              ; preds = %132
  %138 = load i32, ptr %12, align 4, !tbaa !4
  %139 = add nsw i32 %138, 1
  store i32 %139, ptr %12, align 4, !tbaa !4
  br label %25, !llvm.loop !219

140:                                              ; preds = %38, %30
  call void @llvm.lifetime.end.p0(i64 4, ptr %12) #8
  %141 = load i32, ptr %11, align 4
  switch i32 %141, label %143 [
    i32 2, label %142
  ]

142:                                              ; preds = %140
  store i32 0, ptr %11, align 4
  br label %143

143:                                              ; preds = %142, %140, %23
  call void @llvm.lifetime.end.p0(i64 8, ptr %10) #8
  call void @llvm.lifetime.end.p0(i64 8, ptr %9) #8
  call void @llvm.lifetime.end.p0(i64 8, ptr %8) #8
  call void @llvm.lifetime.end.p0(i64 8, ptr %7) #8
  %144 = load i32, ptr %11, align 4
  switch i32 %144, label %146 [
    i32 0, label %145
    i32 1, label %145
  ]

145:                                              ; preds = %143, %143
  ret void

146:                                              ; preds = %143
  unreachable
}