; Function Attrs: nounwind uwtable
define internal void @thread_libevent_process(i32 noundef %0, i16 signext %1, ptr noundef %2) #0 {
  %4 = alloca i64, align 8
  call void @llvm.lifetime.start.p0(i64 8, ptr nonnull %4) #15
  store i64 0, ptr %4, align 8, !tbaa !57
  %5 = call i64 @read(i32 noundef %0, ptr noundef nonnull %4, i64 noundef 8) #15
  %.not = icmp eq i64 %5, 8
  br i1 %.not, label %.preheader, label %9

.preheader:                                       ; preds = %3
  %6 = load i64, ptr %4, align 8, !tbaa !57
  %.not35 = icmp eq i64 %6, 0
  br i1 %.not35, label %.loopexit, label %.lr.ph

.lr.ph:                                           ; preds = %.preheader
  %7 = getelementptr inbounds nuw i8, ptr %2, i64 6928
  %8 = getelementptr inbounds nuw i8, ptr %2, i64 8
  br label %15

9:                                                ; preds = %3
  %10 = load i32, ptr getelementptr inbounds nuw (i8, ptr @settings, i64 32), align 8, !tbaa !59
  %11 = icmp sgt i32 %10, 0
  br i1 %11, label %12, label %.loopexit

12:                                               ; preds = %9
  %13 = load ptr, ptr @stderr, align 8, !tbaa !18
  %14 = tail call i64 @fwrite(ptr nonnull @.str.29, i64 30, i64 1, ptr %13) #17
  br label %.loopexit

15:                                               ; preds = %.lr.ph, %94
  %indvars.iv = phi i64 [ 0, %.lr.ph ], [ %indvars.iv.next, %94 ]
  %16 = load ptr, ptr %7, align 8, !tbaa !23
  %17 = getelementptr inbounds nuw i8, ptr %16, i64 16
  %18 = tail call i32 @pthread_mutex_lock(ptr noundef nonnull %17) #15
  %19 = load ptr, ptr %16, align 8, !tbaa !188
  %.not.i = icmp eq ptr %19, null
  br i1 %.not.i, label %cq_pop.exit, label %20

20:                                               ; preds = %15
  %21 = getelementptr inbounds nuw i8, ptr %19, i64 64
  %22 = load ptr, ptr %21, align 8, !tbaa !54
  store ptr %22, ptr %16, align 8, !tbaa !188
  %23 = icmp eq ptr %22, null
  br i1 %23, label %24, label %27

24:                                               ; preds = %20
  %25 = getelementptr inbounds nuw i8, ptr %16, i64 8
  store ptr %16, ptr %25, align 8, !tbaa !55
  br label %27

cq_pop.exit:                                      ; preds = %15
  %26 = tail call i32 @pthread_mutex_unlock(ptr noundef nonnull %17) #15
  br label %.loopexit

27:                                               ; preds = %20, %24
  %28 = tail call i32 @pthread_mutex_unlock(ptr noundef nonnull %17) #15
  %29 = getelementptr inbounds nuw i8, ptr %19, i64 20
  %30 = load i32, ptr %29, align 4, !tbaa !49
  switch i32 %30, label %94 [
    i32 0, label %31
    i32 1, label %71
    i32 2, label %79
    i32 3, label %85
    i32 4, label %91
  ]

31:                                               ; preds = %27
  %32 = load i32, ptr %19, align 8, !tbaa !53
  %33 = getelementptr inbounds nuw i8, ptr %19, i64 4
  %34 = load i32, ptr %33, align 4, !tbaa !73
  %35 = getelementptr inbounds nuw i8, ptr %19, i64 8
  %36 = load i32, ptr %35, align 8, !tbaa !74
  %37 = getelementptr inbounds nuw i8, ptr %19, i64 12
  %38 = load i32, ptr %37, align 4, !tbaa !75
  %39 = getelementptr inbounds nuw i8, ptr %19, i64 16
  %40 = load i32, ptr %39, align 8, !tbaa !76
  %41 = load ptr, ptr %8, align 8, !tbaa !187
  %42 = getelementptr inbounds nuw i8, ptr %19, i64 32
  %43 = load ptr, ptr %42, align 8, !tbaa !77
  %44 = getelementptr inbounds nuw i8, ptr %19, i64 40
  %45 = load i64, ptr %44, align 8, !tbaa !78
  %46 = getelementptr inbounds nuw i8, ptr %19, i64 48
  %47 = load i32, ptr %46, align 8, !tbaa !79
  %48 = tail call ptr @conn_new(i32 noundef %32, i32 noundef %34, i32 noundef %36, i32 noundef %38, i32 noundef %40, ptr noundef %41, ptr noundef %43, i64 noundef %45, i32 noundef %47) #15
  %49 = icmp eq ptr %48, null
  br i1 %49, label %50, label %69

50:                                               ; preds = %31
  %51 = load i32, ptr %39, align 8, !tbaa !76
  %52 = icmp eq i32 %51, 2
  br i1 %52, label %53, label %56

53:                                               ; preds = %50
  %54 = load ptr, ptr @stderr, align 8, !tbaa !18
  %55 = tail call i64 @fwrite(ptr nonnull @.str.30, i64 38, i64 1, ptr %54) #17
  tail call void @exit(i32 noundef 1) #18
  unreachable

56:                                               ; preds = %50
  %57 = load i32, ptr getelementptr inbounds nuw (i8, ptr @settings, i64 32), align 8, !tbaa !59
  %58 = icmp sgt i32 %57, 0
  br i1 %58, label %59, label %63

59:                                               ; preds = %56
  %60 = load ptr, ptr @stderr, align 8, !tbaa !18
  %61 = load i32, ptr %19, align 8, !tbaa !53
  %62 = tail call i32 (ptr, ptr, ...) @fprintf(ptr noundef %60, ptr noundef nonnull @.str.31, i32 noundef %61) #16
  br label %63

63:                                               ; preds = %59, %56
  %64 = load ptr, ptr %42, align 8, !tbaa !77
  %.not32 = icmp eq ptr %64, null
  br i1 %.not32, label %66, label %65

65:                                               ; preds = %63
  store ptr null, ptr %42, align 8, !tbaa !77
  br label %66

66:                                               ; preds = %65, %63
  %67 = load i32, ptr %19, align 8, !tbaa !53
  %68 = tail call i32 @close(i32 noundef %67) #15
  br label %94

69:                                               ; preds = %31
  %70 = getelementptr inbounds nuw i8, ptr %48, i64 400
  store ptr %2, ptr %70, align 8, !tbaa !80
  br label %94

71:                                               ; preds = %27
  %72 = tail call i32 @pthread_mutex_lock(ptr noundef nonnull @init_lock) #15
  %73 = load i32, ptr @init_count, align 4, !tbaa !8
  %74 = add nsw i32 %73, 1
  store i32 %74, ptr @init_count, align 4, !tbaa !8
  %75 = tail call i32 @pthread_cond_signal(ptr noundef nonnull @init_cond) #15
  %76 = tail call i32 @pthread_mutex_unlock(ptr noundef nonnull @init_lock) #15
  %77 = tail call i32 @pthread_mutex_lock(ptr noundef nonnull @worker_hang_lock) #15
  %78 = tail call i32 @pthread_mutex_unlock(ptr noundef nonnull @worker_hang_lock) #15
  br label %94

79:                                               ; preds = %27
  %80 = load ptr, ptr @conns, align 8, !tbaa !199
  %81 = load i32, ptr %19, align 8, !tbaa !53
  %82 = sext i32 %81 to i64
  %83 = getelementptr inbounds ptr, ptr %80, i64 %82
  %84 = load ptr, ptr %83, align 8, !tbaa !201
  tail call void @conn_close_idle(ptr noundef %84) #15
  br label %94

85:                                               ; preds = %27
  %86 = load ptr, ptr @conns, align 8, !tbaa !199
  %87 = load i32, ptr %19, align 8, !tbaa !53
  %88 = sext i32 %87 to i64
  %89 = getelementptr inbounds ptr, ptr %86, i64 %88
  %90 = load ptr, ptr %89, align 8, !tbaa !201
  tail call void @conn_worker_readd(ptr noundef %90) #15
  br label %94

91:                                               ; preds = %27
  %92 = load ptr, ptr %8, align 8, !tbaa !187
  %93 = tail call i32 @event_base_loopexit(ptr noundef %92, ptr noundef null) #15
  br label %94

94:                                               ; preds = %66, %69, %91, %85, %79, %71, %27
  %95 = load ptr, ptr %7, align 8, !tbaa !23
  %96 = getelementptr i8, ptr %95, i64 56
  %.val = load ptr, ptr %96, align 8, !tbaa !41
  tail call void @cache_free(ptr noundef %.val, ptr noundef nonnull %19) #15
  %indvars.iv.next = add nuw i64 %indvars.iv, 1
  %exitcond.not = icmp eq i64 %indvars.iv.next, %6
  br i1 %exitcond.not, label %.loopexit, label %15, !llvm.loop !202

.loopexit:                                        ; preds = %94, %.preheader, %cq_pop.exit, %9, %12
  call void @llvm.lifetime.end.p0(i64 8, ptr nonnull %4) #15
  ret void
}